target datalayout = "e-m:e-p270:32:32-p271:32:32-p272:64:64-i64:64-i128:128-f80:128-n8:16:32:64-S128"
target triple = "x86_64-pc-linux-gnu"

%struct.BackendGlobalData = type <{ ptr, ptr, i8, i8, i8, i8, i8, i8, i8, i8, i8, [3 x i8], i32, ptr, ptr, ptr, ptr, ptr, ptr, ptr, ptr, ptr, ptr, ptr, ptr, ptr, i32, %struct.jvmtiCapabilities, i8, [3 x i8], %struct.jvmtiEventCallbacks, ptr, ptr, ptr, ptr, ptr, ptr, ptr, i32, [4 x i8], ptr, i64, i32, [4 x i8], ptr, i32, i32, i8, i8, [6 x i8] }>
%struct.jvmtiCapabilities = type { i64, i64 }
%struct.jvmtiEventCallbacks = type { ptr, ptr, ptr, ptr, ptr, ptr, ptr, ptr, ptr, ptr, ptr, ptr, ptr, ptr, ptr, ptr, ptr, ptr, ptr, ptr, ptr, ptr, ptr, ptr, ptr, ptr, ptr, ptr, ptr, ptr, ptr, ptr, ptr, ptr, ptr, ptr, ptr, ptr, ptr }
%struct.jvmtiInterface_1_ = type { ptr, ptr, ptr, ptr, ptr, ptr, ptr, ptr, ptr, ptr, ptr, ptr, ptr, ptr, ptr, ptr, ptr, ptr, ptr, ptr, ptr, ptr, ptr, ptr, ptr, ptr, ptr, ptr, ptr, ptr, ptr, ptr, ptr, ptr, ptr, ptr, ptr, ptr, ptr, ptr, ptr, ptr, ptr, ptr, ptr, ptr, ptr, ptr, ptr, ptr, ptr, ptr, ptr, ptr, ptr, ptr, ptr, ptr, ptr, ptr, ptr, ptr, ptr, ptr, ptr, ptr, ptr, ptr, ptr, ptr, ptr, ptr, ptr, ptr, ptr, ptr, ptr, ptr, ptr, ptr, ptr, ptr, ptr, ptr, ptr, ptr, ptr, ptr, ptr, ptr, ptr, ptr, ptr, ptr, ptr, ptr, ptr, ptr, ptr, ptr, ptr, ptr, ptr, ptr, ptr, ptr, ptr, ptr, ptr, ptr, ptr, ptr, ptr, ptr, ptr, ptr, ptr, ptr, ptr, ptr, ptr, ptr, ptr, ptr, ptr, ptr, ptr, ptr, ptr, ptr, ptr, ptr, ptr, ptr, ptr, ptr, ptr, ptr, ptr, ptr, ptr, ptr, ptr, ptr, ptr, ptr, ptr, ptr, ptr, ptr, ptr, ptr, ptr, ptr, ptr, ptr }

@gdata = external global ptr, align 8
@.str = private unnamed_addr constant [6 x i8] c"ERROR\00", align 1
@.str.1 = private unnamed_addr constant [52 x i8] c"src/jdk.jdwp.agent/share/native/libjdwp/debugInit.c\00", align 1
@.str.6 = private unnamed_addr constant [5 x i8] c"%s()\00", align 1
@.str.12 = private unnamed_addr constant [6 x i8] c"JVMTI\00", align 1
@.str.105 = private unnamed_addr constant [19 x i8] c"DisposeEnvironment\00", align 1
@.str.106 = private unnamed_addr constant [52 x i8] c"JDWP unable to dispose of JVMTI environment: %s(%d)\00", align 1

; Function Attrs: nounwind uwtable
define internal void @disposeEnvironment(ptr noundef %0) #0 {
  %2 = alloca ptr, align 8
  %3 = alloca i32, align 4
  store ptr %0, ptr %2, align 8
  %4 = load ptr, ptr @gdata, align 8
  %5 = getelementptr inbounds %struct.BackendGlobalData, ptr %4, i32 0, i32 38
  %6 = load i32, ptr %5, align 8
  %7 = and i32 %6, 4
  %8 = icmp ne i32 %7, 0
  br i1 %8, label %9, label %10

9:                                                ; preds = %1
  call void @log_message_begin(ptr noundef @.str.12, ptr noundef @.str.1, i32 noundef 404)
  call void (ptr, ...) @log_message_end(ptr noundef @.str.6, ptr noundef @.str.105)
  br label %11

10:                                               ; preds = %1
  br label %11

11:                                               ; preds = %10, %9
  %12 = load ptr, ptr %2, align 8
  %13 = load ptr, ptr %12, align 8
  %14 = getelementptr inbounds %struct.jvmtiInterface_1_, ptr %13, i32 0, i32 126
  %15 = load ptr, ptr %14, align 8
  %16 = load ptr, ptr %2, align 8
  %17 = call i32 %15(ptr noundef %16)
  store i32 %17, ptr %3, align 4
  %18 = load i32, ptr %3, align 4
  %19 = icmp eq i32 %18, 99
  br i1 %19, label %20, label %21

20:                                               ; preds = %11
  store i32 0, ptr %3, align 4
  br label %21

21:                                               ; preds = %20, %11
  %22 = load i32, ptr %3, align 4
  %23 = icmp ne i32 %22, 0
  br i1 %23, label %24, label %39

24:                                               ; preds = %21
  %25 = load ptr, ptr @gdata, align 8
  %26 = getelementptr inbounds %struct.BackendGlobalData, ptr %25, i32 0, i32 38
  %27 = load i32, ptr %26, align 8
  %28 = and i32 %27, 128
  %29 = icmp ne i32 %28, 0
  br i1 %29, label %30, label %34

30:                                               ; preds = %24
  call void @log_message_begin(ptr noundef @.str, ptr noundef @.str.1, i32 noundef 410)
  %31 = load i32, ptr %3, align 4
  %32 = call ptr @jvmtiErrorText(i32 noundef %31)
  %33 = load i32, ptr %3, align 4
  call void (ptr, ...) @log_message_end(ptr noundef @.str.106, ptr noundef %32, i32 noundef %33)
  br label %35

34:                                               ; preds = %24
  br label %35

35:                                               ; preds = %34, %30
  %36 = load i32, ptr %3, align 4
  %37 = call ptr @jvmtiErrorText(i32 noundef %36)
  %38 = load i32, ptr %3, align 4
  call void (ptr, ...) @error_message(ptr noundef @.str.106, ptr noundef %37, i32 noundef %38)
  br label %39

39:                                               ; preds = %35, %21
  %40 = load ptr, ptr @gdata, align 8
  %41 = getelementptr inbounds %struct.BackendGlobalData, ptr %40, i32 0, i32 0
  store ptr null, ptr %41, align 8
  ret void
}