; Function Attrs: nounwind uwtable
define internal fastcc void @disposeEnvironment(ptr noundef %0) unnamed_addr #0 {
  %2 = load ptr, ptr @gdata, align 8
  %3 = getelementptr inbounds i8, ptr %2, i64 528
  %4 = load i32, ptr %3, align 8
  %5 = and i32 %4, 4
  %.not = icmp eq i32 %5, 0
  br i1 %.not, label %7, label %6

6:                                                ; preds = %1
  tail call void @log_message_begin(ptr noundef nonnull @.str.12, ptr noundef nonnull @.str.1, i32 noundef 404) #16
  tail call void (ptr, ...) @log_message_end(ptr noundef nonnull @.str.6, ptr noundef nonnull @.str.105) #16
  br label %7

7:                                                ; preds = %1, %6
  %8 = load ptr, ptr %0, align 8
  %9 = getelementptr inbounds i8, ptr %8, i64 1008
  %10 = load ptr, ptr %9, align 8
  %11 = tail call i32 %10(ptr noundef nonnull %0) #16
  switch i32 %11, label %12 [
    i32 99, label %21
    i32 0, label %21
  ]

12:                                               ; preds = %7
  %13 = load ptr, ptr @gdata, align 8
  %14 = getelementptr inbounds i8, ptr %13, i64 528
  %15 = load i32, ptr %14, align 8
  %16 = and i32 %15, 128
  %.not9 = icmp eq i32 %16, 0
  br i1 %.not9, label %19, label %17

17:                                               ; preds = %12
  tail call void @log_message_begin(ptr noundef nonnull @.str, ptr noundef nonnull @.str.1, i32 noundef 410) #16
  %18 = tail call ptr @jvmtiErrorText(i32 noundef %11) #16
  tail call void (ptr, ...) @log_message_end(ptr noundef nonnull @.str.106, ptr noundef %18, i32 noundef %11) #16
  br label %19

19:                                               ; preds = %12, %17
  %20 = tail call ptr @jvmtiErrorText(i32 noundef %11) #16
  tail call void (ptr, ...) @error_message(ptr noundef nonnull @.str.106, ptr noundef %20, i32 noundef %11) #16
  br label %21

21:                                               ; preds = %7, %7, %19
  %22 = load ptr, ptr @gdata, align 8
  store ptr null, ptr %22, align 8
  ret void
}